target datalayout = "e-m:e-p270:32:32-p271:32:32-p272:64:64-i64:64-i128:128-f80:128-n8:16:32:64-S128"
target triple = "x86_64-pc-linux-gnu"

%struct.URLContext = type { ptr, ptr, ptr, ptr, i32, i32, i32, i32, %struct.AVIOInterruptCB, i64, ptr, ptr, i32 }
%struct.AVIOInterruptCB = type { ptr, ptr }
%struct.HTTPContext = type { ptr, ptr, [8192 x i8], ptr, ptr, i32, i32, i64, i32, i64, i64, i64, ptr, ptr, %struct.HTTPAuthState, %struct.HTTPAuthState, ptr, ptr, ptr, ptr, ptr, ptr, ptr, i32, i32, i32, i32, i32, i32, ptr, i32, i32, i32, ptr, ptr, i32, i64, i64, ptr, ptr, ptr, i32, %struct.z_stream_s, ptr, ptr, i32, ptr, i32, i32, i32, i32, i32, ptr, i32, ptr, i32, i32, i32, i32, i32, i64, ptr, ptr, i64, i32, i32, i32, i32 }
%struct.HTTPAuthState = type { i32, [200 x i8], %struct.DigestParams, i32 }
%struct.DigestParams = type { [300 x i8], [10 x i8], [30 x i8], [300 x i8], [10 x i8], i32 }
%struct.z_stream_s = type { ptr, i32, i64, ptr, i32, i64, ptr, ptr, ptr, ptr, ptr, i32, i64, i64 }

@.str.1 = private unnamed_addr constant [6 x i8] c"https\00", align 1
@.str.10 = private unnamed_addr constant [4 x i8] c"tcp\00", align 1
@.str.14 = private unnamed_addr constant [4 x i8] c"tls\00", align 1
@.str.32 = private unnamed_addr constant [3 x i8] c"\0D\0A\00", align 1
@.str.118 = private unnamed_addr constant [51 x i8] c"No trailing CRLF found in HTTP header. Adding it.\0A\00", align 1
@.str.119 = private unnamed_addr constant [7 x i8] c"listen\00", align 1

; Function Attrs: nounwind uwtable
define internal i32 @http_listen(ptr noundef %0, ptr noundef %1, i32 noundef %2, ptr noundef %3) #0 {
  %5 = alloca ptr, align 8
  %6 = alloca ptr, align 8
  %7 = alloca i32, align 4
  %8 = alloca ptr, align 8
  %9 = alloca ptr, align 8
  %10 = alloca i32, align 4
  %11 = alloca [1024 x i8], align 16
  %12 = alloca [10 x i8], align 1
  %13 = alloca [100 x i8], align 16
  %14 = alloca ptr, align 8
  %15 = alloca i32, align 4
  store ptr %0, ptr %5, align 8, !tbaa !4
  store ptr %1, ptr %6, align 8, !tbaa !17
  store i32 %2, ptr %7, align 4, !tbaa !34
  store ptr %3, ptr %8, align 8, !tbaa !18
  call void @llvm.lifetime.start.p0(i64 8, ptr %9) #11
  %16 = load ptr, ptr %5, align 8, !tbaa !4
  %17 = getelementptr inbounds nuw %struct.URLContext, ptr %16, i32 0, i32 2
  %18 = load ptr, ptr %17, align 8, !tbaa !9
  store ptr %18, ptr %9, align 8, !tbaa !21
  call void @llvm.lifetime.start.p0(i64 4, ptr %10) #11
  call void @llvm.lifetime.start.p0(i64 1024, ptr %11) #11
  call void @llvm.lifetime.start.p0(i64 10, ptr %12) #11
  call void @llvm.lifetime.start.p0(i64 100, ptr %13) #11
  call void @llvm.lifetime.start.p0(i64 8, ptr %14) #11
  store ptr @.str.10, ptr %14, align 8, !tbaa !17
  call void @llvm.lifetime.start.p0(i64 4, ptr %15) #11
  %19 = getelementptr inbounds [10 x i8], ptr %12, i64 0, i64 0
  %20 = getelementptr inbounds [1024 x i8], ptr %11, i64 0, i64 0
  %21 = load ptr, ptr %6, align 8, !tbaa !17
  call void @av_url_split(ptr noundef %19, i32 noundef 10, ptr noundef null, i32 noundef 0, ptr noundef %20, i32 noundef 1024, ptr noundef %15, ptr noundef null, i32 noundef 0, ptr noundef %21)
  %22 = getelementptr inbounds [10 x i8], ptr %12, i64 0, i64 0
  %23 = call i32 @strcmp(ptr noundef %22, ptr noundef @.str.1) #12
  %24 = icmp ne i32 %23, 0
  br i1 %24, label %26, label %25

25:                                               ; preds = %4
  store ptr @.str.14, ptr %14, align 8, !tbaa !17
  br label %26

26:                                               ; preds = %25, %4
  %27 = getelementptr inbounds [100 x i8], ptr %13, i64 0, i64 0
  %28 = load ptr, ptr %14, align 8, !tbaa !17
  %29 = getelementptr inbounds [1024 x i8], ptr %11, i64 0, i64 0
  %30 = load i32, ptr %15, align 4, !tbaa !34
  %31 = call i32 (ptr, i32, ptr, ptr, ptr, i32, ptr, ...) @ff_url_join(ptr noundef %27, i32 noundef 100, ptr noundef %28, ptr noundef null, ptr noundef %29, i32 noundef %30, ptr noundef null)
  %32 = load ptr, ptr %8, align 8, !tbaa !18
  %33 = load ptr, ptr %9, align 8, !tbaa !21
  %34 = getelementptr inbounds nuw %struct.HTTPContext, ptr %33, i32 0, i32 53
  %35 = load i32, ptr %34, align 8, !tbaa !43
  %36 = sext i32 %35 to i64
  %37 = call i32 @av_dict_set_int(ptr noundef %32, ptr noundef @.str.119, i64 noundef %36, i32 noundef 0)
  store i32 %37, ptr %10, align 4, !tbaa !34
  %38 = icmp slt i32 %37, 0
  br i1 %38, label %39, label %40

39:                                               ; preds = %26
  br label %74

40:                                               ; preds = %26
  %41 = load ptr, ptr %9, align 8, !tbaa !21
  %42 = getelementptr inbounds nuw %struct.HTTPContext, ptr %41, i32 0, i32 1
  %43 = getelementptr inbounds [100 x i8], ptr %13, i64 0, i64 0
  %44 = load ptr, ptr %5, align 8, !tbaa !4
  %45 = getelementptr inbounds nuw %struct.URLContext, ptr %44, i32 0, i32 8
  %46 = load ptr, ptr %8, align 8, !tbaa !18
  %47 = load ptr, ptr %5, align 8, !tbaa !4
  %48 = getelementptr inbounds nuw %struct.URLContext, ptr %47, i32 0, i32 10
  %49 = load ptr, ptr %48, align 8, !tbaa !74
  %50 = load ptr, ptr %5, align 8, !tbaa !4
  %51 = getelementptr inbounds nuw %struct.URLContext, ptr %50, i32 0, i32 11
  %52 = load ptr, ptr %51, align 8, !tbaa !75
  %53 = load ptr, ptr %5, align 8, !tbaa !4
  %54 = call i32 @ffurl_open_whitelist(ptr noundef %42, ptr noundef %43, i32 noundef 3, ptr noundef %45, ptr noundef %46, ptr noundef %49, ptr noundef %52, ptr noundef %53)
  store i32 %54, ptr %10, align 4, !tbaa !34
  %55 = icmp slt i32 %54, 0
  br i1 %55, label %56, label %57

56:                                               ; preds = %40
  br label %74

57:                                               ; preds = %40
  %58 = load ptr, ptr %9, align 8, !tbaa !21
  %59 = getelementptr inbounds nuw %struct.HTTPContext, ptr %58, i32 0, i32 57
  store i32 0, ptr %59, align 8, !tbaa !69
  %60 = load ptr, ptr %9, align 8, !tbaa !21
  %61 = getelementptr inbounds nuw %struct.HTTPContext, ptr %60, i32 0, i32 53
  %62 = load i32, ptr %61, align 8, !tbaa !43
  %63 = icmp eq i32 %62, 1
  br i1 %63, label %64, label %73

64:                                               ; preds = %57
  %65 = load ptr, ptr %9, align 8, !tbaa !21
  %66 = getelementptr inbounds nuw %struct.HTTPContext, ptr %65, i32 0, i32 55
  store i32 200, ptr %66, align 8, !tbaa !71
  br label %67

67:                                               ; preds = %71, %64
  %68 = load ptr, ptr %5, align 8, !tbaa !4
  %69 = call i32 @http_handshake(ptr noundef %68)
  store i32 %69, ptr %10, align 4, !tbaa !34
  %70 = icmp sgt i32 %69, 0
  br i1 %70, label %71, label %72

71:                                               ; preds = %67
  br label %67, !llvm.loop !144

72:                                               ; preds = %67
  br label %73

73:                                               ; preds = %72, %57
  br label %74

74:                                               ; preds = %73, %56, %39
  %75 = load ptr, ptr %9, align 8, !tbaa !21
  %76 = getelementptr inbounds nuw %struct.HTTPContext, ptr %75, i32 0, i32 44
  call void @av_dict_free(ptr noundef %76)
  %77 = load ptr, ptr %9, align 8, !tbaa !21
  %78 = getelementptr inbounds nuw %struct.HTTPContext, ptr %77, i32 0, i32 34
  call void @av_dict_free(ptr noundef %78)
  %79 = load i32, ptr %10, align 4, !tbaa !34
  call void @llvm.lifetime.end.p0(i64 4, ptr %15) #11
  call void @llvm.lifetime.end.p0(i64 8, ptr %14) #11
  call void @llvm.lifetime.end.p0(i64 100, ptr %13) #11
  call void @llvm.lifetime.end.p0(i64 10, ptr %12) #11
  call void @llvm.lifetime.end.p0(i64 1024, ptr %11) #11
  call void @llvm.lifetime.end.p0(i64 4, ptr %10) #11
  call void @llvm.lifetime.end.p0(i64 8, ptr %9) #11
  ret i32 %79
}

; Function Attrs: nounwind uwtable
define internal i32 @http_open(ptr noundef %0, ptr noundef %1, i32 noundef %2, ptr noundef %3) #0 {
  %5 = alloca i32, align 4
  %6 = alloca ptr, align 8
  %7 = alloca ptr, align 8
  %8 = alloca i32, align 4
  %9 = alloca ptr, align 8
  %10 = alloca ptr, align 8
  %11 = alloca i32, align 4
  %12 = alloca i32, align 4
  %13 = alloca i32, align 4
  store ptr %0, ptr %6, align 8, !tbaa !4
  store ptr %1, ptr %7, align 8, !tbaa !17
  store i32 %2, ptr %8, align 4, !tbaa !34
  store ptr %3, ptr %9, align 8, !tbaa !18
  call void @llvm.lifetime.start.p0(i64 8, ptr %10) #11
  %14 = load ptr, ptr %6, align 8, !tbaa !4
  %15 = getelementptr inbounds nuw %struct.URLContext, ptr %14, i32 0, i32 2
  %16 = load ptr, ptr %15, align 8, !tbaa !9
  store ptr %16, ptr %10, align 8, !tbaa !21
  call void @llvm.lifetime.start.p0(i64 4, ptr %11) #11
  %17 = load ptr, ptr %10, align 8, !tbaa !21
  %18 = getelementptr inbounds nuw %struct.HTTPContext, ptr %17, i32 0, i32 24
  %19 = load i32, ptr %18, align 4, !tbaa !60
  %20 = icmp eq i32 %19, 1
  br i1 %20, label %21, label %24

21:                                               ; preds = %4
  %22 = load ptr, ptr %6, align 8, !tbaa !4
  %23 = getelementptr inbounds nuw %struct.URLContext, ptr %22, i32 0, i32 6
  store i32 0, ptr %23, align 8, !tbaa !61
  br label %27

24:                                               ; preds = %4
  %25 = load ptr, ptr %6, align 8, !tbaa !4
  %26 = getelementptr inbounds nuw %struct.URLContext, ptr %25, i32 0, i32 6
  store i32 1, ptr %26, align 8, !tbaa !61
  br label %27

27:                                               ; preds = %24, %21
  %28 = load ptr, ptr %10, align 8, !tbaa !21
  %29 = getelementptr inbounds nuw %struct.HTTPContext, ptr %28, i32 0, i32 11
  store i64 -1, ptr %29, align 8, !tbaa !62
  %30 = load ptr, ptr %7, align 8, !tbaa !17
  %31 = call noalias ptr @av_strdup(ptr noundef %30)
  %32 = load ptr, ptr %10, align 8, !tbaa !21
  %33 = getelementptr inbounds nuw %struct.HTTPContext, ptr %32, i32 0, i32 13
  store ptr %31, ptr %33, align 8, !tbaa !28
  %34 = load ptr, ptr %10, align 8, !tbaa !21
  %35 = getelementptr inbounds nuw %struct.HTTPContext, ptr %34, i32 0, i32 13
  %36 = load ptr, ptr %35, align 8, !tbaa !28
  %37 = icmp ne ptr %36, null
  br i1 %37, label %39, label %38

38:                                               ; preds = %27
  store i32 -12, ptr %5, align 4
  store i32 1, ptr %12, align 4
  br label %148

39:                                               ; preds = %27
  %40 = load ptr, ptr %7, align 8, !tbaa !17
  %41 = call noalias ptr @av_strdup(ptr noundef %40)
  %42 = load ptr, ptr %10, align 8, !tbaa !21
  %43 = getelementptr inbounds nuw %struct.HTTPContext, ptr %42, i32 0, i32 12
  store ptr %41, ptr %43, align 8, !tbaa !41
  %44 = load ptr, ptr %10, align 8, !tbaa !21
  %45 = getelementptr inbounds nuw %struct.HTTPContext, ptr %44, i32 0, i32 12
  %46 = load ptr, ptr %45, align 8, !tbaa !41
  %47 = icmp ne ptr %46, null
  br i1 %47, label %49, label %48

48:                                               ; preds = %39
  store i32 -12, ptr %5, align 4
  store i32 1, ptr %12, align 4
  br label %148

49:                                               ; preds = %39
  %50 = load ptr, ptr %9, align 8, !tbaa !18
  %51 = icmp ne ptr %50, null
  br i1 %51, label %52, label %58

52:                                               ; preds = %49
  %53 = load ptr, ptr %10, align 8, !tbaa !21
  %54 = getelementptr inbounds nuw %struct.HTTPContext, ptr %53, i32 0, i32 44
  %55 = load ptr, ptr %9, align 8, !tbaa !18
  %56 = load ptr, ptr %55, align 8, !tbaa !23
  %57 = call i32 @av_dict_copy(ptr noundef %54, ptr noundef %56, i32 noundef 0)
  br label %58

58:                                               ; preds = %52, %49
  %59 = load ptr, ptr %10, align 8, !tbaa !21
  %60 = getelementptr inbounds nuw %struct.HTTPContext, ptr %59, i32 0, i32 17
  %61 = load ptr, ptr %60, align 8, !tbaa !63
  %62 = icmp ne ptr %61, null
  br i1 %62, label %63, label %117

63:                                               ; preds = %58
  call void @llvm.lifetime.start.p0(i64 4, ptr %13) #11
  %64 = load ptr, ptr %10, align 8, !tbaa !21
  %65 = getelementptr inbounds nuw %struct.HTTPContext, ptr %64, i32 0, i32 17
  %66 = load ptr, ptr %65, align 8, !tbaa !63
  %67 = call i64 @strlen(ptr noundef %66) #12
  %68 = trunc i64 %67 to i32
  store i32 %68, ptr %13, align 4, !tbaa !34
  %69 = load i32, ptr %13, align 4, !tbaa !34
  %70 = icmp slt i32 %69, 2
  br i1 %70, label %81, label %71

71:                                               ; preds = %63
  %72 = load ptr, ptr %10, align 8, !tbaa !21
  %73 = getelementptr inbounds nuw %struct.HTTPContext, ptr %72, i32 0, i32 17
  %74 = load ptr, ptr %73, align 8, !tbaa !63
  %75 = load i32, ptr %13, align 4, !tbaa !34
  %76 = sext i32 %75 to i64
  %77 = getelementptr inbounds i8, ptr %74, i64 %76
  %78 = getelementptr inbounds i8, ptr %77, i64 -2
  %79 = call i32 @strcmp(ptr noundef @.str.32, ptr noundef %78) #12
  %80 = icmp ne i32 %79, 0
  br i1 %80, label %81, label %113

81:                                               ; preds = %71, %63
  %82 = load ptr, ptr %6, align 8, !tbaa !4
  call void (ptr, i32, ptr, ...) @av_log(ptr noundef %82, i32 noundef 24, ptr noundef @.str.118)
  %83 = load ptr, ptr %10, align 8, !tbaa !21
  %84 = getelementptr inbounds nuw %struct.HTTPContext, ptr %83, i32 0, i32 17
  %85 = load i32, ptr %13, align 4, !tbaa !34
  %86 = add nsw i32 %85, 3
  %87 = sext i32 %86 to i64
  %88 = call i32 @av_reallocp(ptr noundef %84, i64 noundef %87)
  store i32 %88, ptr %11, align 4, !tbaa !34
  %89 = load i32, ptr %11, align 4, !tbaa !34
  %90 = icmp slt i32 %89, 0
  br i1 %90, label %91, label %92

91:                                               ; preds = %81
  store i32 2, ptr %12, align 4
  br label %114

92:                                               ; preds = %81
  %93 = load ptr, ptr %10, align 8, !tbaa !21
  %94 = getelementptr inbounds nuw %struct.HTTPContext, ptr %93, i32 0, i32 17
  %95 = load ptr, ptr %94, align 8, !tbaa !63
  %96 = load i32, ptr %13, align 4, !tbaa !34
  %97 = sext i32 %96 to i64
  %98 = getelementptr inbounds i8, ptr %95, i64 %97
  store i8 13, ptr %98, align 1, !tbaa !64
  %99 = load ptr, ptr %10, align 8, !tbaa !21
  %100 = getelementptr inbounds nuw %struct.HTTPContext, ptr %99, i32 0, i32 17
  %101 = load ptr, ptr %100, align 8, !tbaa !63
  %102 = load i32, ptr %13, align 4, !tbaa !34
  %103 = add nsw i32 %102, 1
  %104 = sext i32 %103 to i64
  %105 = getelementptr inbounds i8, ptr %101, i64 %104
  store i8 10, ptr %105, align 1, !tbaa !64
  %106 = load ptr, ptr %10, align 8, !tbaa !21
  %107 = getelementptr inbounds nuw %struct.HTTPContext, ptr %106, i32 0, i32 17
  %108 = load ptr, ptr %107, align 8, !tbaa !63
  %109 = load i32, ptr %13, align 4, !tbaa !34
  %110 = add nsw i32 %109, 2
  %111 = sext i32 %110 to i64
  %112 = getelementptr inbounds i8, ptr %108, i64 %111
  store i8 0, ptr %112, align 1, !tbaa !64
  br label %113

113:                                              ; preds = %92, %71
  store i32 0, ptr %12, align 4
  br label %114

114:                                              ; preds = %91, %113
  call void @llvm.lifetime.end.p0(i64 4, ptr %13) #11
  %115 = load i32, ptr %12, align 4
  switch i32 %115, label %148 [
    i32 0, label %116
    i32 2, label %132
  ]

116:                                              ; preds = %114
  br label %117

117:                                              ; preds = %116, %58
  %118 = load ptr, ptr %10, align 8, !tbaa !21
  %119 = getelementptr inbounds nuw %struct.HTTPContext, ptr %118, i32 0, i32 53
  %120 = load i32, ptr %119, align 8, !tbaa !43
  %121 = icmp ne i32 %120, 0
  br i1 %121, label %122, label %128

122:                                              ; preds = %117
  %123 = load ptr, ptr %6, align 8, !tbaa !4
  %124 = load ptr, ptr %7, align 8, !tbaa !17
  %125 = load i32, ptr %8, align 4, !tbaa !34
  %126 = load ptr, ptr %9, align 8, !tbaa !18
  %127 = call i32 @http_listen(ptr noundef %123, ptr noundef %124, i32 noundef %125, ptr noundef %126)
  store i32 %127, ptr %5, align 4
  store i32 1, ptr %12, align 4
  br label %148

128:                                              ; preds = %117
  %129 = load ptr, ptr %6, align 8, !tbaa !4
  %130 = load ptr, ptr %9, align 8, !tbaa !18
  %131 = call i32 @http_open_cnx(ptr noundef %129, ptr noundef %130)
  store i32 %131, ptr %11, align 4, !tbaa !34
  br label %132

132:                                              ; preds = %128, %114
  %133 = load i32, ptr %11, align 4, !tbaa !34
  %134 = icmp slt i32 %133, 0
  br i1 %134, label %135, label %146

135:                                              ; preds = %132
  %136 = load ptr, ptr %10, align 8, !tbaa !21
  %137 = getelementptr inbounds nuw %struct.HTTPContext, ptr %136, i32 0, i32 44
  call void @av_dict_free(ptr noundef %137)
  %138 = load ptr, ptr %10, align 8, !tbaa !21
  %139 = getelementptr inbounds nuw %struct.HTTPContext, ptr %138, i32 0, i32 34
  call void @av_dict_free(ptr noundef %139)
  %140 = load ptr, ptr %10, align 8, !tbaa !21
  %141 = getelementptr inbounds nuw %struct.HTTPContext, ptr %140, i32 0, i32 62
  call void @av_dict_free(ptr noundef %141)
  %142 = load ptr, ptr %10, align 8, !tbaa !21
  %143 = getelementptr inbounds nuw %struct.HTTPContext, ptr %142, i32 0, i32 61
  call void @av_freep(ptr noundef %143)
  %144 = load ptr, ptr %10, align 8, !tbaa !21
  %145 = getelementptr inbounds nuw %struct.HTTPContext, ptr %144, i32 0, i32 12
  call void @av_freep(ptr noundef %145)
  br label %146

146:                                              ; preds = %135, %132
  %147 = load i32, ptr %11, align 4, !tbaa !34
  store i32 %147, ptr %5, align 4
  store i32 1, ptr %12, align 4
  br label %148

148:                                              ; preds = %146, %122, %114, %48, %38
  call void @llvm.lifetime.end.p0(i64 4, ptr %11) #11
  call void @llvm.lifetime.end.p0(i64 8, ptr %10) #11
  %149 = load i32, ptr %5, align 4
  ret i32 %149
}