; Function Attrs: nounwind uwtable
define internal i32 @http_open(ptr noundef initializes((40, 44)) %0, ptr noundef %1, i32 %2, ptr noundef %3) #2 {
  %5 = alloca [1024 x i8], align 16
  %6 = alloca [10 x i8], align 1
  %7 = alloca [100 x i8], align 16
  %8 = alloca i32, align 4
  %9 = getelementptr inbounds nuw i8, ptr %0, i64 16
  %10 = load ptr, ptr %9, align 8, !tbaa !4
  %11 = getelementptr inbounds nuw i8, ptr %10, i64 10076
  %12 = load i32, ptr %11, align 4, !tbaa !59
  %13 = icmp ne i32 %12, 1
  %spec.select = zext i1 %13 to i32
  %14 = getelementptr inbounds nuw i8, ptr %0, i64 40
  store i32 %spec.select, ptr %14, align 8, !tbaa !91
  %15 = getelementptr inbounds nuw i8, ptr %10, i64 8264
  store i64 -1, ptr %15, align 8, !tbaa !76
  %16 = tail call noalias ptr @av_strdup(ptr noundef %1) #15
  %17 = getelementptr inbounds nuw i8, ptr %10, i64 8280
  store ptr %16, ptr %17, align 8, !tbaa !20
  %.not = icmp eq ptr %16, null
  br i1 %.not, label %100, label %18

18:                                               ; preds = %4
  %19 = tail call noalias ptr @av_strdup(ptr noundef %1) #15
  %20 = getelementptr inbounds nuw i8, ptr %10, i64 8272
  store ptr %19, ptr %20, align 8, !tbaa !34
  %.not51 = icmp eq ptr %19, null
  br i1 %.not51, label %100, label %21

21:                                               ; preds = %18
  %.not52 = icmp eq ptr %3, null
  br i1 %.not52, label %26, label %22

22:                                               ; preds = %21
  %23 = getelementptr inbounds nuw i8, ptr %10, i64 10312
  %24 = load ptr, ptr %3, align 8, !tbaa !15
  %25 = tail call i32 @av_dict_copy(ptr noundef nonnull %23, ptr noundef %24, i32 noundef 0) #15
  br label %26

26:                                               ; preds = %22, %21
  %27 = getelementptr inbounds nuw i8, ptr %10, i64 10024
  %28 = load ptr, ptr %27, align 8, !tbaa !55
  %.not53 = icmp eq ptr %28, null
  br i1 %.not53, label %.thread, label %29

29:                                               ; preds = %26
  %30 = tail call i64 @strlen(ptr noundef nonnull dereferenceable(1) %28) #16
  %31 = trunc i64 %30 to i32
  %32 = icmp slt i32 %31, 2
  br i1 %32, label %47, label %sub_0

sub_0:                                            ; preds = %29
  %33 = and i64 %30, 2147483647
  %34 = getelementptr inbounds nuw i8, ptr %28, i64 %33
  %35 = getelementptr inbounds i8, ptr %34, i64 -2
  %36 = load i8, ptr %35, align 1
  %37 = zext i8 %36 to i32
  %38 = sub nsw i32 13, %37
  %.not66 = icmp eq i8 %36, 13
  br i1 %.not66, label %sub_1, label %.tail

sub_1:                                            ; preds = %sub_0
  %39 = getelementptr inbounds i8, ptr %34, i64 -1
  %40 = load i8, ptr %39, align 1
  %41 = zext i8 %40 to i32
  %42 = sub nsw i32 10, %41
  %.not67 = icmp eq i8 %40, 10
  br i1 %.not67, label %sub_2, label %.tail

sub_2:                                            ; preds = %sub_1
  %43 = load i8, ptr %34, align 1
  %44 = zext i8 %43 to i32
  %45 = sub nsw i32 0, %44
  br label %.tail

.tail:                                            ; preds = %sub_0, %sub_1, %sub_2
  %46 = phi i32 [ %38, %sub_0 ], [ %42, %sub_1 ], [ %45, %sub_2 ]
  %.not54 = icmp eq i32 %46, 0
  br i1 %.not54, label %.thread, label %47

47:                                               ; preds = %.tail, %29
  tail call void (ptr, i32, ptr, ...) @av_log(ptr noundef nonnull %0, i32 noundef 24, ptr noundef nonnull @.str.118) #15
  %48 = shl i64 %30, 32
  %sext = add i64 %48, 12884901888
  %49 = ashr exact i64 %sext, 32
  %50 = tail call i32 @av_reallocp(ptr noundef nonnull %27, i64 noundef %49) #15
  %51 = icmp slt i32 %50, 0
  br i1 %51, label %.thread63, label %52

52:                                               ; preds = %47
  %53 = load ptr, ptr %27, align 8, !tbaa !55
  %54 = ashr exact i64 %48, 32
  %55 = getelementptr inbounds i8, ptr %53, i64 %54
  store i8 13, ptr %55, align 1, !tbaa !44
  %56 = load ptr, ptr %27, align 8, !tbaa !55
  %sext56 = add i64 %48, 4294967296
  %57 = ashr exact i64 %sext56, 32
  %58 = getelementptr inbounds i8, ptr %56, i64 %57
  store i8 10, ptr %58, align 1, !tbaa !44
  %59 = load ptr, ptr %27, align 8, !tbaa !55
  %sext57 = add i64 %48, 8589934592
  %60 = ashr exact i64 %sext57, 32
  %61 = getelementptr inbounds i8, ptr %59, i64 %60
  store i8 0, ptr %61, align 1, !tbaa !44
  br label %.thread

.thread:                                          ; preds = %.tail, %52, %26
  %62 = getelementptr inbounds nuw i8, ptr %10, i64 10368
  %63 = load i32, ptr %62, align 8, !tbaa !36
  %.not58 = icmp eq i32 %63, 0
  br i1 %.not58, label %93, label %64

64:                                               ; preds = %.thread
  %65 = load ptr, ptr %9, align 8, !tbaa !4
  call void @llvm.lifetime.start.p0(i64 1024, ptr nonnull %5) #15
  call void @llvm.lifetime.start.p0(i64 10, ptr nonnull %6) #15
  call void @llvm.lifetime.start.p0(i64 100, ptr nonnull %7) #15
  call void @llvm.lifetime.start.p0(i64 4, ptr nonnull %8) #15
  call void @av_url_split(ptr noundef nonnull %6, i32 noundef 10, ptr noundef null, i32 noundef 0, ptr noundef nonnull %5, i32 noundef 1024, ptr noundef nonnull %8, ptr noundef null, i32 noundef 0, ptr noundef %1) #15
  %bcmp.i = call i32 @bcmp(ptr noundef nonnull dereferenceable(6) %6, ptr noundef nonnull dereferenceable(6) @.str.1, i64 6)
  %.not.i = icmp eq i32 %bcmp.i, 0
  %spec.select.i = select i1 %.not.i, ptr @.str.14, ptr @.str.10
  %66 = load i32, ptr %8, align 4, !tbaa !27
  %67 = call i32 (ptr, i32, ptr, ptr, ptr, i32, ptr, ...) @ff_url_join(ptr noundef nonnull %7, i32 noundef 100, ptr noundef nonnull %spec.select.i, ptr noundef null, ptr noundef nonnull %5, i32 noundef %66, ptr noundef null) #15
  %68 = getelementptr inbounds nuw i8, ptr %65, i64 10368
  %69 = load i32, ptr %68, align 8, !tbaa !36
  %70 = sext i32 %69 to i64
  %71 = call i32 @av_dict_set_int(ptr noundef %3, ptr noundef nonnull @.str.119, i64 noundef %70, i32 noundef 0) #15
  %72 = icmp slt i32 %71, 0
  br i1 %72, label %http_listen.exit, label %73

73:                                               ; preds = %64
  %74 = getelementptr inbounds nuw i8, ptr %65, i64 8
  %75 = getelementptr inbounds nuw i8, ptr %0, i64 48
  %76 = getelementptr inbounds nuw i8, ptr %0, i64 72
  %77 = load ptr, ptr %76, align 8, !tbaa !45
  %78 = getelementptr inbounds nuw i8, ptr %0, i64 80
  %79 = load ptr, ptr %78, align 8, !tbaa !46
  %80 = call i32 @ffurl_open_whitelist(ptr noundef nonnull %74, ptr noundef nonnull %7, i32 noundef 3, ptr noundef nonnull %75, ptr noundef %3, ptr noundef %77, ptr noundef %79, ptr noundef nonnull %0) #15
  %81 = icmp slt i32 %80, 0
  br i1 %81, label %http_listen.exit, label %82

82:                                               ; preds = %73
  %83 = getelementptr inbounds nuw i8, ptr %65, i64 10392
  store i32 0, ptr %83, align 8, !tbaa !92
  %84 = load i32, ptr %68, align 8, !tbaa !36
  %85 = icmp eq i32 %84, 1
  br i1 %85, label %86, label %http_listen.exit

86:                                               ; preds = %82
  %87 = getelementptr inbounds nuw i8, ptr %65, i64 10384
  store i32 200, ptr %87, align 8, !tbaa !93
  br label %88

88:                                               ; preds = %88, %86
  %89 = call i32 @http_handshake(ptr noundef nonnull %0)
  %90 = icmp sgt i32 %89, 0
  br i1 %90, label %88, label %http_listen.exit, !llvm.loop !94

http_listen.exit:                                 ; preds = %88, %64, %73, %82
  %.017.i = phi i32 [ %71, %64 ], [ %80, %73 ], [ %80, %82 ], [ %89, %88 ]
  %91 = getelementptr inbounds nuw i8, ptr %65, i64 10312
  call void @av_dict_free(ptr noundef nonnull %91) #15
  %92 = getelementptr inbounds nuw i8, ptr %65, i64 10128
  call void @av_dict_free(ptr noundef nonnull %92) #15
  call void @llvm.lifetime.end.p0(i64 4, ptr nonnull %8) #15
  call void @llvm.lifetime.end.p0(i64 100, ptr nonnull %7) #15
  call void @llvm.lifetime.end.p0(i64 10, ptr nonnull %6) #15
  call void @llvm.lifetime.end.p0(i64 1024, ptr nonnull %5) #15
  br label %100

93:                                               ; preds = %.thread
  %94 = tail call fastcc i32 @http_open_cnx(ptr noundef nonnull %0, ptr noundef %3)
  %95 = icmp slt i32 %94, 0
  br i1 %95, label %.thread63, label %100

.thread63:                                        ; preds = %47, %93
  %.265 = phi i32 [ %94, %93 ], [ %50, %47 ]
  %96 = getelementptr inbounds nuw i8, ptr %10, i64 10312
  tail call void @av_dict_free(ptr noundef nonnull %96) #15
  %97 = getelementptr inbounds nuw i8, ptr %10, i64 10128
  tail call void @av_dict_free(ptr noundef nonnull %97) #15
  %98 = getelementptr inbounds nuw i8, ptr %10, i64 10424
  tail call void @av_dict_free(ptr noundef nonnull %98) #15
  %99 = getelementptr inbounds nuw i8, ptr %10, i64 10416
  tail call void @av_freep(ptr noundef nonnull %99) #15
  tail call void @av_freep(ptr noundef nonnull %20) #15
  br label %100

100:                                              ; preds = %93, %.thread63, %18, %4, %http_listen.exit
  %.0 = phi i32 [ %.017.i, %http_listen.exit ], [ -12, %4 ], [ -12, %18 ], [ %.265, %.thread63 ], [ 0, %93 ]
  ret i32 %.0
}